target datalayout = "e-m:e-p270:32:32-p271:32:32-p272:64:64-i64:64-i128:128-f80:128-n8:16:32:64-S128"
target triple = "x86_64-pc-linux-gnu"

%struct.mq = type { ptr, i32, i32, ptr, ptr, i64, ptr, i64, ptr, i64, ptr, i8, ptr, ptr, [10 x %struct.mq_item] }
%struct.mq_item = type { i32, i64, i64 }
%struct.lbr_state = type { i64, %union.RepeatControl }
%union.RepeatControl = type { %struct.RepeatRingControl }
%struct.RepeatRingControl = type { i64, i16, i16 }
%struct.lbr_common = type { i32, i32 }
%struct.RepeatInfo = type { i8, i32, i32, i32, i32, i32, i32, [2 x i32], i32, i32, i32, i32, i32 }
%struct.RepeatRangeControl = type { i64, i8 }
%struct.RepeatOffsetControl = type { i64 }
%struct.RepeatBitmapControl = type { i64, i64 }
%struct.RepeatTrailerControl = type { i64, i64 }

; Function Attrs: alwaysinline nounwind uwtable
define internal i32 @repeatHasMatchLast(ptr noundef %0, ptr noundef %1, i64 noundef %2) #2 {
  %4 = alloca i32, align 4
  %5 = alloca ptr, align 8
  %6 = alloca ptr, align 8
  %7 = alloca i64, align 8
  store ptr %0, ptr %5, align 8
  store ptr %1, ptr %6, align 8
  store i64 %2, ptr %7, align 8
  %8 = load i64, ptr %7, align 8
  %9 = load ptr, ptr %6, align 8
  %10 = getelementptr inbounds nuw %struct.RepeatOffsetControl, ptr %9, i32 0, i32 0
  %11 = load i64, ptr %10, align 8
  %12 = load ptr, ptr %5, align 8
  %13 = getelementptr inbounds nuw %struct.RepeatInfo, ptr %12, i32 0, i32 1
  %14 = load i32, ptr %13, align 4
  %15 = zext i32 %14 to i64
  %16 = add i64 %11, %15
  %17 = icmp ult i64 %8, %16
  br i1 %17, label %18, label %19

18:                                               ; preds = %3
  store i32 0, ptr %4, align 4
  br label %32

19:                                               ; preds = %3
  %20 = load i64, ptr %7, align 8
  %21 = load ptr, ptr %6, align 8
  %22 = getelementptr inbounds nuw %struct.RepeatOffsetControl, ptr %21, i32 0, i32 0
  %23 = load i64, ptr %22, align 8
  %24 = load ptr, ptr %5, align 8
  %25 = getelementptr inbounds nuw %struct.RepeatInfo, ptr %24, i32 0, i32 2
  %26 = load i32, ptr %25, align 4
  %27 = zext i32 %26 to i64
  %28 = add i64 %23, %27
  %29 = icmp ule i64 %20, %28
  br i1 %29, label %30, label %31

30:                                               ; preds = %19
  store i32 1, ptr %4, align 4
  br label %32

31:                                               ; preds = %19
  store i32 2, ptr %4, align 4
  br label %32

32:                                               ; preds = %31, %30, %18
  %33 = load i32, ptr %4, align 4
  ret i32 %33
}

; Function Attrs: alwaysinline nounwind uwtable
define internal i32 @repeatHasMatchFirst(ptr noundef %0, ptr noundef %1, i64 noundef %2) #2 {
  %4 = alloca i32, align 4
  %5 = alloca ptr, align 8
  %6 = alloca ptr, align 8
  %7 = alloca i64, align 8
  store ptr %0, ptr %5, align 8
  store ptr %1, ptr %6, align 8
  store i64 %2, ptr %7, align 8
  %8 = load i64, ptr %7, align 8
  %9 = load ptr, ptr %6, align 8
  %10 = getelementptr inbounds nuw %struct.RepeatOffsetControl, ptr %9, i32 0, i32 0
  %11 = load i64, ptr %10, align 8
  %12 = load ptr, ptr %5, align 8
  %13 = getelementptr inbounds nuw %struct.RepeatInfo, ptr %12, i32 0, i32 1
  %14 = load i32, ptr %13, align 4
  %15 = zext i32 %14 to i64
  %16 = add i64 %11, %15
  %17 = icmp ult i64 %8, %16
  br i1 %17, label %18, label %19

18:                                               ; preds = %3
  store i32 0, ptr %4, align 4
  br label %20

19:                                               ; preds = %3
  store i32 1, ptr %4, align 4
  br label %20

20:                                               ; preds = %19, %18
  %21 = load i32, ptr %4, align 4
  ret i32 %21
}

; Function Attrs: alwaysinline nounwind uwtable
define internal i32 @repeatHasMatch(ptr noundef %0, ptr noundef %1, ptr noundef %2, i64 noundef %3) #2 {
  %5 = alloca i32, align 4
  %6 = alloca ptr, align 8
  %7 = alloca ptr, align 8
  %8 = alloca ptr, align 8
  %9 = alloca i64, align 8
  store ptr %0, ptr %6, align 8
  store ptr %1, ptr %7, align 8
  store ptr %2, ptr %8, align 8
  store i64 %3, ptr %9, align 8
  %10 = load ptr, ptr %6, align 8
  %11 = getelementptr inbounds nuw %struct.RepeatInfo, ptr %10, i32 0, i32 0
  %12 = load i8, ptr %11, align 4
  %13 = zext i8 %12 to i32
  switch i32 %13, label %53 [
    i32 0, label %14
    i32 1, label %20
    i32 2, label %25
    i32 3, label %30
    i32 4, label %36
    i32 5, label %41
    i32 6, label %47
    i32 7, label %52
  ]

14:                                               ; preds = %4
  %15 = load ptr, ptr %6, align 8
  %16 = load ptr, ptr %7, align 8
  %17 = load ptr, ptr %8, align 8
  %18 = load i64, ptr %9, align 8
  %19 = call i32 @repeatHasMatchRing(ptr noundef %15, ptr noundef %16, ptr noundef %17, i64 noundef %18)
  store i32 %19, ptr %5, align 4
  br label %54

20:                                               ; preds = %4
  %21 = load ptr, ptr %6, align 8
  %22 = load ptr, ptr %7, align 8
  %23 = load i64, ptr %9, align 8
  %24 = call i32 @repeatHasMatchFirst(ptr noundef %21, ptr noundef %22, i64 noundef %23)
  store i32 %24, ptr %5, align 4
  br label %54

25:                                               ; preds = %4
  %26 = load ptr, ptr %6, align 8
  %27 = load ptr, ptr %7, align 8
  %28 = load i64, ptr %9, align 8
  %29 = call i32 @repeatHasMatchLast(ptr noundef %26, ptr noundef %27, i64 noundef %28)
  store i32 %29, ptr %5, align 4
  br label %54

30:                                               ; preds = %4
  %31 = load ptr, ptr %6, align 8
  %32 = load ptr, ptr %7, align 8
  %33 = load ptr, ptr %8, align 8
  %34 = load i64, ptr %9, align 8
  %35 = call i32 @repeatHasMatchRange(ptr noundef %31, ptr noundef %32, ptr noundef %33, i64 noundef %34)
  store i32 %35, ptr %5, align 4
  br label %54

36:                                               ; preds = %4
  %37 = load ptr, ptr %6, align 8
  %38 = load ptr, ptr %7, align 8
  %39 = load i64, ptr %9, align 8
  %40 = call i32 @repeatHasMatchBitmap(ptr noundef %37, ptr noundef %38, i64 noundef %39)
  store i32 %40, ptr %5, align 4
  br label %54

41:                                               ; preds = %4
  %42 = load ptr, ptr %6, align 8
  %43 = load ptr, ptr %7, align 8
  %44 = load ptr, ptr %8, align 8
  %45 = load i64, ptr %9, align 8
  %46 = call i32 @repeatHasMatchSparseOptimalP(ptr noundef %42, ptr noundef %43, ptr noundef %44, i64 noundef %45)
  store i32 %46, ptr %5, align 4
  br label %54

47:                                               ; preds = %4
  %48 = load ptr, ptr %6, align 8
  %49 = load ptr, ptr %7, align 8
  %50 = load i64, ptr %9, align 8
  %51 = call i32 @repeatHasMatchTrailer(ptr noundef %48, ptr noundef %49, i64 noundef %50)
  store i32 %51, ptr %5, align 4
  br label %54

52:                                               ; preds = %4
  store i32 1, ptr %5, align 4
  br label %54

53:                                               ; preds = %4
  store i32 0, ptr %5, align 4
  br label %54

54:                                               ; preds = %53, %52, %47, %41, %36, %30, %25, %20, %14
  %55 = load i32, ptr %5, align 4
  ret i32 %55
}

; Function Attrs: alwaysinline nounwind uwtable
define internal signext i8 @lbrInAccept(ptr noundef %0, ptr noundef %1, ptr noundef %2, i64 noundef %3, i32 noundef %4) #2 {
  %6 = alloca i8, align 1
  %7 = alloca ptr, align 8
  %8 = alloca ptr, align 8
  %9 = alloca ptr, align 8
  %10 = alloca i64, align 8
  %11 = alloca i32, align 4
  %12 = alloca ptr, align 8
  %13 = alloca ptr, align 8
  store ptr %0, ptr %7, align 8
  store ptr %1, ptr %8, align 8
  store ptr %2, ptr %9, align 8
  store i64 %3, ptr %10, align 8
  store i32 %4, ptr %11, align 4
  br label %14

14:                                               ; preds = %5
  br label %15

15:                                               ; preds = %14
  %16 = load i32, ptr %11, align 4
  %17 = load ptr, ptr %7, align 8
  %18 = getelementptr inbounds nuw %struct.lbr_common, ptr %17, i32 0, i32 1
  %19 = load i32, ptr %18, align 4
  %20 = icmp ne i32 %16, %19
  br i1 %20, label %21, label %24

21:                                               ; preds = %15
  br label %22

22:                                               ; preds = %21
  br label %23

23:                                               ; preds = %22
  store i8 0, ptr %6, align 1
  br label %42

24:                                               ; preds = %15
  call void @llvm.lifetime.start.p0(i64 8, ptr %12) #8
  %25 = load ptr, ptr %7, align 8
  %26 = call ptr @getRepeatInfo(ptr noundef %25)
  store ptr %26, ptr %12, align 8
  call void @llvm.lifetime.start.p0(i64 8, ptr %13) #8
  %27 = load ptr, ptr %9, align 8
  %28 = load ptr, ptr %12, align 8
  %29 = getelementptr inbounds nuw %struct.RepeatInfo, ptr %28, i32 0, i32 4
  %30 = load i32, ptr %29, align 4
  %31 = zext i32 %30 to i64
  %32 = getelementptr inbounds nuw i8, ptr %27, i64 %31
  store ptr %32, ptr %13, align 8
  %33 = load ptr, ptr %12, align 8
  %34 = load ptr, ptr %8, align 8
  %35 = getelementptr inbounds nuw %struct.lbr_state, ptr %34, i32 0, i32 1
  %36 = load ptr, ptr %13, align 8
  %37 = load i64, ptr %10, align 8
  %38 = call i32 @repeatHasMatch(ptr noundef %33, ptr noundef %35, ptr noundef %36, i64 noundef %37)
  %39 = icmp eq i32 %38, 1
  %40 = zext i1 %39 to i32
  %41 = trunc i32 %40 to i8
  store i8 %41, ptr %6, align 1
  call void @llvm.lifetime.end.p0(i64 8, ptr %13) #8
  call void @llvm.lifetime.end.p0(i64 8, ptr %12) #8
  br label %42

42:                                               ; preds = %24, %23
  %43 = load i8, ptr %6, align 1
  ret i8 %43
}

; Function Attrs: alwaysinline nounwind uwtable
define internal i64 @q_last_loc(ptr noundef %0) #2 {
  %2 = alloca ptr, align 8
  store ptr %0, ptr %2, align 8
  %3 = load ptr, ptr %2, align 8
  %4 = getelementptr inbounds nuw %struct.mq, ptr %3, i32 0, i32 14
  %5 = load ptr, ptr %2, align 8
  %6 = getelementptr inbounds nuw %struct.mq, ptr %5, i32 0, i32 2
  %7 = load i32, ptr %6, align 4
  %8 = sub i32 %7, 1
  %9 = zext i32 %8 to i64
  %10 = getelementptr inbounds nuw [10 x %struct.mq_item], ptr %4, i64 0, i64 %9
  %11 = getelementptr inbounds nuw %struct.mq_item, ptr %10, i32 0, i32 1
  %12 = load i64, ptr %11, align 8
  ret i64 %12
}

; Function Attrs: alwaysinline nounwind uwtable
define internal signext i8 @repeatIsDead(ptr noundef %0, ptr noundef %1) #2 {
  %3 = alloca i8, align 1
  %4 = alloca ptr, align 8
  %5 = alloca ptr, align 8
  store ptr %0, ptr %4, align 8
  store ptr %1, ptr %5, align 8
  %6 = load ptr, ptr %4, align 8
  %7 = getelementptr inbounds nuw %struct.RepeatInfo, ptr %6, i32 0, i32 0
  %8 = load i8, ptr %7, align 4
  %9 = zext i8 %8 to i32
  switch i32 %9, label %59 [
    i32 0, label %10
    i32 3, label %18
    i32 1, label %26
    i32 2, label %26
    i32 4, label %34
    i32 5, label %42
    i32 6, label %50
    i32 7, label %58
  ]

10:                                               ; preds = %2
  %11 = load ptr, ptr %5, align 8
  %12 = getelementptr inbounds nuw %struct.lbr_state, ptr %11, i32 0, i32 1
  %13 = getelementptr inbounds nuw %struct.RepeatRingControl, ptr %12, i32 0, i32 0
  %14 = load i64, ptr %13, align 8
  %15 = icmp eq i64 %14, -1
  %16 = zext i1 %15 to i32
  %17 = trunc i32 %16 to i8
  store i8 %17, ptr %3, align 1
  br label %60

18:                                               ; preds = %2
  %19 = load ptr, ptr %5, align 8
  %20 = getelementptr inbounds nuw %struct.lbr_state, ptr %19, i32 0, i32 1
  %21 = getelementptr inbounds nuw %struct.RepeatRangeControl, ptr %20, i32 0, i32 0
  %22 = load i64, ptr %21, align 8
  %23 = icmp eq i64 %22, -1
  %24 = zext i1 %23 to i32
  %25 = trunc i32 %24 to i8
  store i8 %25, ptr %3, align 1
  br label %60

26:                                               ; preds = %2, %2
  %27 = load ptr, ptr %5, align 8
  %28 = getelementptr inbounds nuw %struct.lbr_state, ptr %27, i32 0, i32 1
  %29 = getelementptr inbounds nuw %struct.RepeatOffsetControl, ptr %28, i32 0, i32 0
  %30 = load i64, ptr %29, align 8
  %31 = icmp eq i64 %30, -1
  %32 = zext i1 %31 to i32
  %33 = trunc i32 %32 to i8
  store i8 %33, ptr %3, align 1
  br label %60

34:                                               ; preds = %2
  %35 = load ptr, ptr %5, align 8
  %36 = getelementptr inbounds nuw %struct.lbr_state, ptr %35, i32 0, i32 1
  %37 = getelementptr inbounds nuw %struct.RepeatBitmapControl, ptr %36, i32 0, i32 0
  %38 = load i64, ptr %37, align 8
  %39 = icmp eq i64 %38, -1
  %40 = zext i1 %39 to i32
  %41 = trunc i32 %40 to i8
  store i8 %41, ptr %3, align 1
  br label %60

42:                                               ; preds = %2
  %43 = load ptr, ptr %5, align 8
  %44 = getelementptr inbounds nuw %struct.lbr_state, ptr %43, i32 0, i32 1
  %45 = getelementptr inbounds nuw %struct.RepeatRingControl, ptr %44, i32 0, i32 0
  %46 = load i64, ptr %45, align 8
  %47 = icmp eq i64 %46, -1
  %48 = zext i1 %47 to i32
  %49 = trunc i32 %48 to i8
  store i8 %49, ptr %3, align 1
  br label %60

50:                                               ; preds = %2
  %51 = load ptr, ptr %5, align 8
  %52 = getelementptr inbounds nuw %struct.lbr_state, ptr %51, i32 0, i32 1
  %53 = getelementptr inbounds nuw %struct.RepeatTrailerControl, ptr %52, i32 0, i32 0
  %54 = load i64, ptr %53, align 8
  %55 = icmp eq i64 %54, -1
  %56 = zext i1 %55 to i32
  %57 = trunc i32 %56 to i8
  store i8 %57, ptr %3, align 1
  br label %60

58:                                               ; preds = %2
  store i8 0, ptr %3, align 1
  br label %60

59:                                               ; preds = %2
  store i8 1, ptr %3, align 1
  br label %60

60:                                               ; preds = %59, %58, %50, %42, %34, %26, %18, %10
  %61 = load i8, ptr %3, align 1
  ret i8 %61
}

; Function Attrs: alwaysinline nounwind uwtable
define internal ptr @getRepeatInfo(ptr noundef %0) #2 {
  %2 = alloca ptr, align 8
  %3 = alloca ptr, align 8
  store ptr %0, ptr %2, align 8
  call void @llvm.lifetime.start.p0(i64 8, ptr %3) #8
  %4 = load ptr, ptr %2, align 8
  %5 = load ptr, ptr %2, align 8
  %6 = getelementptr inbounds nuw %struct.lbr_common, ptr %5, i32 0, i32 0
  %7 = load i32, ptr %6, align 4
  %8 = zext i32 %7 to i64
  %9 = getelementptr inbounds nuw i8, ptr %4, i64 %8
  store ptr %9, ptr %3, align 8
  %10 = load ptr, ptr %3, align 8
  call void @llvm.lifetime.end.p0(i64 8, ptr %3) #8
  ret ptr %10
}

; Function Attrs: nounwind uwtable
define hidden signext i8 @nfaExecLbrNVerm_inAccept(ptr noundef %0, i32 noundef %1, ptr noundef %2) #0 {
  %4 = alloca i8, align 1
  %5 = alloca ptr, align 8
  %6 = alloca i32, align 4
  %7 = alloca ptr, align 8
  %8 = alloca ptr, align 8
  %9 = alloca ptr, align 8
  %10 = alloca ptr, align 8
  %11 = alloca i32, align 4
  %12 = alloca i64, align 8
  store ptr %0, ptr %5, align 8
  store i32 %1, ptr %6, align 4
  store ptr %2, ptr %7, align 8
  br label %13

13:                                               ; preds = %3
  br label %14

14:                                               ; preds = %13
  call void @llvm.lifetime.start.p0(i64 8, ptr %8) #8
  %15 = load ptr, ptr %5, align 8
  %16 = getelementptr inbounds nuw i8, ptr %15, i64 64
  store ptr %16, ptr %8, align 8
  call void @llvm.lifetime.start.p0(i64 8, ptr %9) #8
  %17 = load ptr, ptr %8, align 8
  %18 = call ptr @getRepeatInfo(ptr noundef %17)
  store ptr %18, ptr %9, align 8
  call void @llvm.lifetime.start.p0(i64 8, ptr %10) #8
  %19 = load ptr, ptr %7, align 8
  %20 = getelementptr inbounds nuw %struct.mq, ptr %19, i32 0, i32 3
  %21 = load ptr, ptr %20, align 8
  store ptr %21, ptr %10, align 8
  %22 = load ptr, ptr %9, align 8
  %23 = load ptr, ptr %10, align 8
  %24 = call signext i8 @repeatIsDead(ptr noundef %22, ptr noundef %23)
  %25 = icmp ne i8 %24, 0
  br i1 %25, label %26, label %30

26:                                               ; preds = %14
  br label %27

27:                                               ; preds = %26
  br label %28

28:                                               ; preds = %27
  br label %29

29:                                               ; preds = %28
  store i8 0, ptr %4, align 1
  store i32 1, ptr %11, align 4
  br label %45

30:                                               ; preds = %14
  call void @llvm.lifetime.start.p0(i64 8, ptr %12) #8
  %31 = load ptr, ptr %7, align 8
  %32 = getelementptr inbounds nuw %struct.mq, ptr %31, i32 0, i32 5
  %33 = load i64, ptr %32, align 8
  %34 = load ptr, ptr %7, align 8
  %35 = call i64 @q_last_loc(ptr noundef %34)
  %36 = add i64 %33, %35
  store i64 %36, ptr %12, align 8
  %37 = load ptr, ptr %8, align 8
  %38 = load ptr, ptr %10, align 8
  %39 = load ptr, ptr %7, align 8
  %40 = getelementptr inbounds nuw %struct.mq, ptr %39, i32 0, i32 4
  %41 = load ptr, ptr %40, align 8
  %42 = load i64, ptr %12, align 8
  %43 = load i32, ptr %6, align 4
  %44 = call signext i8 @lbrInAccept(ptr noundef %37, ptr noundef %38, ptr noundef %41, i64 noundef %42, i32 noundef %43)
  store i8 %44, ptr %4, align 1
  store i32 1, ptr %11, align 4
  call void @llvm.lifetime.end.p0(i64 8, ptr %12) #8
  br label %45

45:                                               ; preds = %30, %29
  call void @llvm.lifetime.end.p0(i64 8, ptr %10) #8
  call void @llvm.lifetime.end.p0(i64 8, ptr %9) #8
  call void @llvm.lifetime.end.p0(i64 8, ptr %8) #8
  %46 = load i8, ptr %4, align 1
  ret i8 %46
}