; Function Attrs: nounwind uwtable
define hidden signext range(i8 0, 2) i8 @nfaExecLbrNVerm_inAccept(ptr noundef %0, i32 noundef %1, ptr noundef readonly captures(none) %2) local_unnamed_addr #0 {
  %4 = getelementptr inbounds nuw i8, ptr %0, i64 64
  %5 = load i32, ptr %4, align 4
  %6 = zext i32 %5 to i64
  %7 = getelementptr inbounds nuw i8, ptr %4, i64 %6
  %8 = getelementptr inbounds nuw i8, ptr %2, i64 16
  %9 = load ptr, ptr %8, align 8
  %10 = load i8, ptr %7, align 4
  switch i8 %10, label %lbrInAccept.exit [
    i8 0, label %repeatIsDead.exit
    i8 3, label %repeatIsDead.exit
    i8 1, label %repeatIsDead.exit
    i8 2, label %repeatIsDead.exit
    i8 4, label %repeatIsDead.exit
    i8 5, label %repeatIsDead.exit
    i8 6, label %repeatIsDead.exit
    i8 7, label %repeatIsDead.exit.thread
  ]

repeatIsDead.exit:                                ; preds = %3, %3, %3, %3, %3, %3, %3
  %.0.shrunk.i.in.in = getelementptr inbounds nuw i8, ptr %9, i64 8
  %.0.shrunk.i.in = load i64, ptr %.0.shrunk.i.in.in, align 8
  %.0.shrunk.i.not = icmp eq i64 %.0.shrunk.i.in, -1
  br i1 %.0.shrunk.i.not, label %lbrInAccept.exit, label %repeatIsDead.exit.thread

repeatIsDead.exit.thread:                         ; preds = %3, %repeatIsDead.exit
  %11 = getelementptr inbounds nuw i8, ptr %2, i64 32
  %12 = load i64, ptr %11, align 8
  %13 = getelementptr inbounds nuw i8, ptr %2, i64 12
  %14 = load i32, ptr %13, align 4
  %15 = add i32 %14, -1
  %16 = zext i32 %15 to i64
  %.idx.i = mul nuw nsw i64 %16, 24
  %17 = getelementptr i8, ptr %2, i64 112
  %18 = getelementptr i8, ptr %17, i64 %.idx.i
  %19 = load i64, ptr %18, align 8
  %20 = add i64 %19, %12
  %21 = getelementptr inbounds nuw i8, ptr %0, i64 68
  %22 = load i32, ptr %21, align 4
  %.not.i = icmp eq i32 %1, %22
  br i1 %.not.i, label %23, label %lbrInAccept.exit

23:                                               ; preds = %repeatIsDead.exit.thread
  %24 = getelementptr inbounds nuw i8, ptr %2, i64 24
  %25 = load ptr, ptr %24, align 8
  %26 = getelementptr inbounds nuw i8, ptr %7, i64 16
  %27 = load i32, ptr %26, align 4
  %28 = zext i32 %27 to i64
  %29 = getelementptr inbounds nuw i8, ptr %25, i64 %28
  %30 = getelementptr inbounds nuw i8, ptr %9, i64 8
  switch i8 %10, label %default.unreachable [
    i8 0, label %31
    i8 1, label %33
    i8 2, label %40
    i8 3, label %52
    i8 4, label %54
    i8 5, label %56
    i8 6, label %58
    i8 7, label %repeatHasMatch.exit
  ]

31:                                               ; preds = %23
  %32 = tail call i32 @repeatHasMatchRing(ptr noundef nonnull %7, ptr noundef nonnull %30, ptr noundef %29, i64 noundef %20) #8
  br label %repeatHasMatch.exit

33:                                               ; preds = %23
  %34 = load i64, ptr %30, align 8
  %35 = getelementptr inbounds nuw i8, ptr %7, i64 4
  %36 = load i32, ptr %35, align 4
  %37 = zext i32 %36 to i64
  %38 = add i64 %34, %37
  %39 = icmp uge i64 %20, %38
  %..i = zext i1 %39 to i32
  br label %repeatHasMatch.exit

40:                                               ; preds = %23
  %41 = load i64, ptr %30, align 8
  %42 = getelementptr inbounds nuw i8, ptr %7, i64 4
  %43 = load i32, ptr %42, align 4
  %44 = zext i32 %43 to i64
  %45 = add i64 %41, %44
  %46 = icmp ult i64 %20, %45
  br i1 %46, label %repeatHasMatch.exit, label %47

47:                                               ; preds = %40
  %48 = getelementptr inbounds nuw i8, ptr %7, i64 8
  %49 = load i32, ptr %48, align 4
  %50 = zext i32 %49 to i64
  %51 = add i64 %41, %50
  %.not.i14 = icmp ugt i64 %20, %51
  %..i15 = select i1 %.not.i14, i32 2, i32 1
  br label %repeatHasMatch.exit

52:                                               ; preds = %23
  %53 = tail call i32 @repeatHasMatchRange(ptr noundef nonnull %7, ptr noundef nonnull %30, ptr noundef %29, i64 noundef %20) #8
  br label %repeatHasMatch.exit

54:                                               ; preds = %23
  %55 = tail call i32 @repeatHasMatchBitmap(ptr noundef nonnull %7, ptr noundef nonnull %30, i64 noundef %20) #8
  br label %repeatHasMatch.exit

56:                                               ; preds = %23
  %57 = tail call i32 @repeatHasMatchSparseOptimalP(ptr noundef nonnull %7, ptr noundef nonnull %30, ptr noundef %29, i64 noundef %20) #8
  br label %repeatHasMatch.exit

58:                                               ; preds = %23
  %59 = tail call i32 @repeatHasMatchTrailer(ptr noundef nonnull %7, ptr noundef nonnull %30, i64 noundef %20) #8
  br label %repeatHasMatch.exit

default.unreachable:                              ; preds = %23
  unreachable

repeatHasMatch.exit:                              ; preds = %47, %40, %23, %31, %33, %52, %54, %56, %58
  %.0.i13 = phi i32 [ %59, %58 ], [ %57, %56 ], [ %55, %54 ], [ %53, %52 ], [ %..i, %33 ], [ %32, %31 ], [ 1, %23 ], [ 0, %40 ], [ %..i15, %47 ]
  %60 = icmp eq i32 %.0.i13, 1
  %61 = zext i1 %60 to i8
  br label %lbrInAccept.exit

lbrInAccept.exit:                                 ; preds = %3, %repeatHasMatch.exit, %repeatIsDead.exit.thread, %repeatIsDead.exit
  %.0 = phi i8 [ 0, %repeatIsDead.exit ], [ %61, %repeatHasMatch.exit ], [ 0, %repeatIsDead.exit.thread ], [ 0, %3 ]
  ret i8 %.0
}